target datalayout = "e-m:e-p270:32:32-p271:32:32-p272:64:64-i64:64-i128:128-f80:128-n8:16:32:64-S128"
target triple = "x86_64-pc-linux-gnu"

%struct.PJconsts = type { ptr, ptr, ptr, ptr, ptr, ptr, ptr, ptr, ptr, ptr, ptr, ptr, i32, ptr, ptr, ptr, ptr, ptr, ptr, ptr, ptr, double, double, double, double, double, double, double, double, double, double, double, double, double, double, double, double, double, double, double, double, double, double, i32, i32, i32, i32, i32, i32, i32, i32, i32, i32, i32, ptr, ptr, ptr, ptr, ptr, ptr, double, double, double, double, double, double, double, double, double, double, double, i32, [7 x double], i32, ptr, ptr, double, double, i32, [4 x i8], %"class.std::shared_ptr", i8, double, i8, %"class.std::__cxx11::basic_string", %"class.std::__cxx11::basic_string", %"class.std::__cxx11::basic_string", i8, %"class.std::vector", i32, %"class.std::vector.3", i32, i8, i8, i8, ptr }
%"class.std::shared_ptr" = type { %"class.std::__shared_ptr" }
%"class.std::__shared_ptr" = type { ptr, %"class.std::__shared_count" }
%"class.std::__shared_count" = type { ptr }
%"class.std::__cxx11::basic_string" = type { %"struct.std::__cxx11::basic_string<char>::_Alloc_hider", i64, %union.anon }
%"struct.std::__cxx11::basic_string<char>::_Alloc_hider" = type { ptr }
%union.anon = type { i64, [8 x i8] }
%"class.std::vector" = type { %"struct.std::_Vector_base" }
%"struct.std::_Vector_base" = type { %"struct.std::_Vector_base<osgeo::proj::operation::GridDescription, std::allocator<osgeo::proj::operation::GridDescription>>::_Vector_impl" }
%"struct.std::_Vector_base<osgeo::proj::operation::GridDescription, std::allocator<osgeo::proj::operation::GridDescription>>::_Vector_impl" = type { %"struct.std::_Vector_base<osgeo::proj::operation::GridDescription, std::allocator<osgeo::proj::operation::GridDescription>>::_Vector_impl_data" }
%"struct.std::_Vector_base<osgeo::proj::operation::GridDescription, std::allocator<osgeo::proj::operation::GridDescription>>::_Vector_impl_data" = type { ptr, ptr, ptr }
%"class.std::vector.3" = type { %"struct.std::_Vector_base.4" }
%"struct.std::_Vector_base.4" = type { %"struct.std::_Vector_base<PJCoordOperation, std::allocator<PJCoordOperation>>::_Vector_impl" }
%"struct.std::_Vector_base<PJCoordOperation, std::allocator<PJCoordOperation>>::_Vector_impl" = type { %"struct.std::_Vector_base<PJCoordOperation, std::allocator<PJCoordOperation>>::_Vector_impl_data" }
%"struct.std::_Vector_base<PJCoordOperation, std::allocator<PJCoordOperation>>::_Vector_impl_data" = type { ptr, ptr, ptr }
%"struct.(anonymous namespace)::pj_vandg2" = type { i32 }
%struct.PJ_XY = type { double, double }
%struct.PJ_LP = type { double, double }

; Function Attrs: mustprogress nounwind uwtable
define internal { double, double } @_ZL16vandg2_s_forward5PJ_LPP8PJconsts(double %0, double %1, ptr noundef %2) #4 {
  %4 = alloca %struct.PJ_XY, align 8
  %5 = alloca %struct.PJ_LP, align 8
  %6 = alloca ptr, align 8
  %7 = alloca ptr, align 8
  %8 = alloca double, align 8
  %9 = alloca double, align 8
  %10 = alloca double, align 8
  %11 = alloca double, align 8
  %12 = getelementptr inbounds nuw { double, double }, ptr %5, i32 0, i32 0
  store double %0, ptr %12, align 8
  %13 = getelementptr inbounds nuw { double, double }, ptr %5, i32 0, i32 1
  store double %1, ptr %13, align 8
  store ptr %2, ptr %6, align 8, !tbaa !3
  call void @llvm.memset.p0.i64(ptr align 8 %4, i8 0, i64 16, i1 false)
  call void @llvm.lifetime.start.p0(i64 8, ptr %7) #8
  %14 = load ptr, ptr %6, align 8, !tbaa !3
  %15 = getelementptr inbounds nuw %struct.PJconsts, ptr %14, i32 0, i32 11
  %16 = load ptr, ptr %15, align 8, !tbaa !43
  store ptr %16, ptr %7, align 8, !tbaa !41
  call void @llvm.lifetime.start.p0(i64 8, ptr %8) #8
  call void @llvm.lifetime.start.p0(i64 8, ptr %9) #8
  call void @llvm.lifetime.start.p0(i64 8, ptr %10) #8
  call void @llvm.lifetime.start.p0(i64 8, ptr %11) #8
  %17 = getelementptr inbounds nuw %struct.PJ_LP, ptr %5, i32 0, i32 1
  %18 = load double, ptr %17, align 8, !tbaa !47
  %19 = fmul double 0x3FE45F306DC9C883, %18
  %20 = call double @llvm.fabs.f64(double %19)
  store double %20, ptr %10, align 8, !tbaa !49
  %21 = load double, ptr %10, align 8, !tbaa !49
  %22 = load double, ptr %10, align 8, !tbaa !49
  %23 = fneg double %21
  %24 = call double @llvm.fmuladd.f64(double %23, double %22, double 1.000000e+00)
  store double %24, ptr %11, align 8, !tbaa !49
  %25 = load double, ptr %11, align 8, !tbaa !49
  %26 = fcmp olt double %25, 0.000000e+00
  br i1 %26, label %27, label %28

27:                                               ; preds = %3
  store double 0.000000e+00, ptr %11, align 8, !tbaa !49
  br label %31

28:                                               ; preds = %3
  %29 = load double, ptr %11, align 8, !tbaa !49
  %30 = call double @sqrt(double noundef %29) #8, !tbaa !50
  store double %30, ptr %11, align 8, !tbaa !49
  br label %31

31:                                               ; preds = %28, %27
  %32 = getelementptr inbounds nuw %struct.PJ_LP, ptr %5, i32 0, i32 0
  %33 = load double, ptr %32, align 8, !tbaa !51
  %34 = call double @llvm.fabs.f64(double %33)
  %35 = fcmp olt double %34, 1.000000e-10
  br i1 %35, label %36, label %53

36:                                               ; preds = %31
  %37 = getelementptr inbounds nuw %struct.PJ_XY, ptr %4, i32 0, i32 0
  store double 0.000000e+00, ptr %37, align 8, !tbaa !52
  %38 = getelementptr inbounds nuw %struct.PJ_LP, ptr %5, i32 0, i32 1
  %39 = load double, ptr %38, align 8, !tbaa !47
  %40 = fcmp olt double %39, 0.000000e+00
  br i1 %40, label %41, label %44

41:                                               ; preds = %36
  %42 = load double, ptr %10, align 8, !tbaa !49
  %43 = fneg double %42
  br label %46

44:                                               ; preds = %36
  %45 = load double, ptr %10, align 8, !tbaa !49
  br label %46

46:                                               ; preds = %44, %41
  %47 = phi double [ %43, %41 ], [ %45, %44 ]
  %48 = fmul double 0x400921FB54442D18, %47
  %49 = load double, ptr %11, align 8, !tbaa !49
  %50 = fadd double 1.000000e+00, %49
  %51 = fdiv double %48, %50
  %52 = getelementptr inbounds nuw %struct.PJ_XY, ptr %4, i32 0, i32 1
  store double %51, ptr %52, align 8, !tbaa !54
  br label %140

53:                                               ; preds = %31
  %54 = getelementptr inbounds nuw %struct.PJ_LP, ptr %5, i32 0, i32 0
  %55 = load double, ptr %54, align 8, !tbaa !51
  %56 = fdiv double 0x400921FB54442D18, %55
  %57 = getelementptr inbounds nuw %struct.PJ_LP, ptr %5, i32 0, i32 0
  %58 = load double, ptr %57, align 8, !tbaa !51
  %59 = fdiv double %58, 0x400921FB54442D18
  %60 = fsub double %56, %59
  %61 = call double @llvm.fabs.f64(double %60)
  %62 = fmul double 5.000000e-01, %61
  store double %62, ptr %9, align 8, !tbaa !49
  %63 = load ptr, ptr %7, align 8, !tbaa !41
  %64 = getelementptr inbounds nuw %"struct.(anonymous namespace)::pj_vandg2", ptr %63, i32 0, i32 0
  %65 = load i32, ptr %64, align 4, !tbaa !44
  %66 = icmp ne i32 %65, 0
  br i1 %66, label %67, label %87

67:                                               ; preds = %53
  %68 = load double, ptr %10, align 8, !tbaa !49
  %69 = load double, ptr %11, align 8, !tbaa !49
  %70 = fadd double 1.000000e+00, %69
  %71 = fdiv double %68, %70
  store double %71, ptr %8, align 8, !tbaa !49
  %72 = load double, ptr %9, align 8, !tbaa !49
  %73 = load double, ptr %9, align 8, !tbaa !49
  %74 = call double @llvm.fmuladd.f64(double %72, double %73, double 1.000000e+00)
  %75 = load double, ptr %8, align 8, !tbaa !49
  %76 = load double, ptr %8, align 8, !tbaa !49
  %77 = fneg double %75
  %78 = call double @llvm.fmuladd.f64(double %77, double %76, double %74)
  %79 = call double @sqrt(double noundef %78) #8, !tbaa !50
  %80 = load double, ptr %9, align 8, !tbaa !49
  %81 = fsub double %79, %80
  %82 = fmul double 0x400921FB54442D18, %81
  %83 = getelementptr inbounds nuw %struct.PJ_XY, ptr %4, i32 0, i32 0
  store double %82, ptr %83, align 8, !tbaa !52
  %84 = load double, ptr %8, align 8, !tbaa !49
  %85 = fmul double 0x400921FB54442D18, %84
  %86 = getelementptr inbounds nuw %struct.PJ_XY, ptr %4, i32 0, i32 1
  store double %85, ptr %86, align 8, !tbaa !54
  br label %121

87:                                               ; preds = %53
  %88 = load double, ptr %11, align 8, !tbaa !49
  %89 = load double, ptr %9, align 8, !tbaa !49
  %90 = load double, ptr %9, align 8, !tbaa !49
  %91 = call double @llvm.fmuladd.f64(double %89, double %90, double 1.000000e+00)
  %92 = call double @sqrt(double noundef %91) #8, !tbaa !50
  %93 = load double, ptr %9, align 8, !tbaa !49
  %94 = load double, ptr %11, align 8, !tbaa !49
  %95 = fmul double %93, %94
  %96 = load double, ptr %11, align 8, !tbaa !49
  %97 = fmul double %95, %96
  %98 = fneg double %97
  %99 = call double @llvm.fmuladd.f64(double %88, double %92, double %98)
  %100 = load double, ptr %9, align 8, !tbaa !49
  %101 = load double, ptr %9, align 8, !tbaa !49
  %102 = fmul double %100, %101
  %103 = load double, ptr %10, align 8, !tbaa !49
  %104 = fmul double %102, %103
  %105 = load double, ptr %10, align 8, !tbaa !49
  %106 = call double @llvm.fmuladd.f64(double %104, double %105, double 1.000000e+00)
  %107 = fdiv double %99, %106
  store double %107, ptr %8, align 8, !tbaa !49
  %108 = load double, ptr %8, align 8, !tbaa !49
  %109 = fmul double 0x400921FB54442D18, %108
  %110 = getelementptr inbounds nuw %struct.PJ_XY, ptr %4, i32 0, i32 0
  store double %109, ptr %110, align 8, !tbaa !52
  %111 = load double, ptr %8, align 8, !tbaa !49
  %112 = load double, ptr %8, align 8, !tbaa !49
  %113 = load double, ptr %9, align 8, !tbaa !49
  %114 = call double @llvm.fmuladd.f64(double 2.000000e+00, double %113, double %112)
  %115 = fneg double %111
  %116 = call double @llvm.fmuladd.f64(double %115, double %114, double 1.000000e+00)
  %117 = fadd double %116, 1.000000e-10
  %118 = call double @sqrt(double noundef %117) #8, !tbaa !50
  %119 = fmul double 0x400921FB54442D18, %118
  %120 = getelementptr inbounds nuw %struct.PJ_XY, ptr %4, i32 0, i32 1
  store double %119, ptr %120, align 8, !tbaa !54
  br label %121

121:                                              ; preds = %87, %67
  %122 = getelementptr inbounds nuw %struct.PJ_LP, ptr %5, i32 0, i32 0
  %123 = load double, ptr %122, align 8, !tbaa !51
  %124 = fcmp olt double %123, 0.000000e+00
  br i1 %124, label %125, label %130

125:                                              ; preds = %121
  %126 = getelementptr inbounds nuw %struct.PJ_XY, ptr %4, i32 0, i32 0
  %127 = load double, ptr %126, align 8, !tbaa !52
  %128 = fneg double %127
  %129 = getelementptr inbounds nuw %struct.PJ_XY, ptr %4, i32 0, i32 0
  store double %128, ptr %129, align 8, !tbaa !52
  br label %130

130:                                              ; preds = %125, %121
  %131 = getelementptr inbounds nuw %struct.PJ_LP, ptr %5, i32 0, i32 1
  %132 = load double, ptr %131, align 8, !tbaa !47
  %133 = fcmp olt double %132, 0.000000e+00
  br i1 %133, label %134, label %139

134:                                              ; preds = %130
  %135 = getelementptr inbounds nuw %struct.PJ_XY, ptr %4, i32 0, i32 1
  %136 = load double, ptr %135, align 8, !tbaa !54
  %137 = fneg double %136
  %138 = getelementptr inbounds nuw %struct.PJ_XY, ptr %4, i32 0, i32 1
  store double %137, ptr %138, align 8, !tbaa !54
  br label %139

139:                                              ; preds = %134, %130
  br label %140

140:                                              ; preds = %139, %46
  call void @llvm.lifetime.end.p0(i64 8, ptr %11) #8
  call void @llvm.lifetime.end.p0(i64 8, ptr %10) #8
  call void @llvm.lifetime.end.p0(i64 8, ptr %9) #8
  call void @llvm.lifetime.end.p0(i64 8, ptr %8) #8
  call void @llvm.lifetime.end.p0(i64 8, ptr %7) #8
  %141 = load { double, double }, ptr %4, align 8
  ret { double, double } %141
}