; Function Attrs: mustprogress nofree nounwind willreturn memory(readwrite, inaccessiblemem: write) uwtable
define internal { double, double } @_ZL16vandg2_s_forward5PJ_LPP8PJconsts(double %0, double %1, ptr noundef readonly captures(none) %2) #3 {
  %4 = getelementptr inbounds nuw i8, ptr %2, i64 88
  %5 = load ptr, ptr %4, align 8, !tbaa !3
  %6 = fmul double %1, 0x3FE45F306DC9C883
  %7 = tail call double @llvm.fabs.f64(double %6)
  %8 = fneg double %7
  %9 = tail call double @llvm.fmuladd.f64(double %8, double %7, double 1.000000e+00)
  %10 = fcmp olt double %9, 0.000000e+00
  br i1 %10, label %13, label %11

11:                                               ; preds = %3
  %12 = tail call double @sqrt(double noundef %9) #8, !tbaa !42
  br label %13

13:                                               ; preds = %3, %11
  %.0 = phi double [ %12, %11 ], [ 0.000000e+00, %3 ]
  %14 = tail call double @llvm.fabs.f64(double %0)
  %15 = fcmp olt double %14, 1.000000e-10
  br i1 %15, label %16, label %22

16:                                               ; preds = %13
  %17 = fcmp olt double %1, 0.000000e+00
  %18 = select i1 %17, double %8, double %7
  %19 = fmul double %18, 0x400921FB54442D18
  %20 = fadd double %.0, 1.000000e+00
  %21 = fdiv double %19, %20
  br label %58

22:                                               ; preds = %13
  %23 = fdiv double 0x400921FB54442D18, %0
  %24 = fdiv double %0, 0x400921FB54442D18
  %25 = fsub double %23, %24
  %26 = tail call double @llvm.fabs.f64(double %25)
  %27 = fmul double %26, 5.000000e-01
  %28 = load i32, ptr %5, align 4, !tbaa !43
  %.not = icmp eq i32 %28, 0
  br i1 %.not, label %37, label %29

29:                                               ; preds = %22
  %30 = fadd double %.0, 1.000000e+00
  %31 = fdiv double %7, %30
  %32 = tail call double @llvm.fmuladd.f64(double %27, double %27, double 1.000000e+00)
  %33 = fneg double %31
  %34 = tail call double @llvm.fmuladd.f64(double %33, double %31, double %32)
  %35 = tail call double @sqrt(double noundef %34) #8, !tbaa !42
  %36 = fsub double %35, %27
  br label %52

37:                                               ; preds = %22
  %38 = tail call double @llvm.fmuladd.f64(double %27, double %27, double 1.000000e+00)
  %sqrt = tail call double @llvm.sqrt.f64(double %38)
  %39 = fmul double %27, %.0
  %40 = fneg double %.0
  %41 = fmul double %39, %40
  %42 = tail call double @llvm.fmuladd.f64(double %.0, double %sqrt, double %41)
  %43 = fmul double %27, %27
  %44 = fmul double %7, %43
  %45 = tail call double @llvm.fmuladd.f64(double %44, double %7, double 1.000000e+00)
  %46 = fdiv double %42, %45
  %47 = tail call double @llvm.fmuladd.f64(double %27, double 2.000000e+00, double %46)
  %48 = fneg double %46
  %49 = tail call double @llvm.fmuladd.f64(double %48, double %47, double 1.000000e+00)
  %50 = fadd double %49, 1.000000e-10
  %51 = tail call double @sqrt(double noundef %50) #8, !tbaa !42
  br label %52

52:                                               ; preds = %37, %29
  %.sroa.7.1.in = phi double [ %31, %29 ], [ %51, %37 ]
  %.sroa.036.1.in = phi double [ %36, %29 ], [ %46, %37 ]
  %.sroa.036.1 = fmul double %.sroa.036.1.in, 0x400921FB54442D18
  %.sroa.7.1 = fmul double %.sroa.7.1.in, 0x400921FB54442D18
  %53 = fcmp olt double %0, 0.000000e+00
  %54 = fneg double %.sroa.036.1
  %.sroa.036.2 = select i1 %53, double %54, double %.sroa.036.1
  %55 = fcmp olt double %1, 0.000000e+00
  br i1 %55, label %56, label %58

56:                                               ; preds = %52
  %57 = fneg double %.sroa.7.1
  br label %58

58:                                               ; preds = %52, %56, %16
  %.sroa.7.0 = phi double [ %21, %16 ], [ %57, %56 ], [ %.sroa.7.1, %52 ]
  %.sroa.036.0 = phi double [ 0.000000e+00, %16 ], [ %.sroa.036.2, %56 ], [ %.sroa.036.2, %52 ]
  %.fca.0.insert = insertvalue { double, double } poison, double %.sroa.036.0, 0
  %.fca.1.insert = insertvalue { double, double } %.fca.0.insert, double %.sroa.7.0, 1
  ret { double, double } %.fca.1.insert
}